; Function Attrs: nounwind sspstrong uwtable
define internal range(i64 0, 21) i64 @ossl_pkcs7_detached_p(i64 noundef %0) #0 {
  %2 = tail call ptr @rb_check_typeddata(i64 noundef %0, ptr noundef nonnull @ossl_pkcs7_type) #5
  %.not = icmp eq ptr %2, null
  br i1 %.not, label %3, label %5

3:                                                ; preds = %1
  %4 = load i64, ptr @rb_eRuntimeError, align 8, !tbaa !6
  tail call void (i64, ptr, ...) @ossl_raise(i64 noundef %4, ptr noundef nonnull @.str.1) #6
  unreachable

5:                                                ; preds = %1
  %6 = getelementptr inbounds nuw i8, ptr %2, i64 24
  %7 = load ptr, ptr %6, align 8, !tbaa !22
  %8 = tail call i32 @OBJ_obj2nid(ptr noundef %7) #5
  %9 = icmp eq i32 %8, 22
  br i1 %9, label %10, label %13

10:                                               ; preds = %5
  %11 = tail call i64 @PKCS7_ctrl(ptr noundef nonnull %2, i32 noundef 2, i64 noundef 0, ptr noundef null) #5
  %.not3 = icmp eq i64 %11, 0
  %12 = select i1 %.not3, i64 0, i64 20
  br label %13

13:                                               ; preds = %10, %5
  %14 = phi i64 [ 0, %5 ], [ %12, %10 ]
  ret i64 %14
}